; Function Attrs: mustprogress uwtable
define noundef ptr @_ZN3re29Prefilter4Info3AndEPS1_S2_(ptr noundef %a, ptr noundef %b) local_unnamed_addr #0 align 2 personality ptr @__gxx_personality_v0 {
entry:
  %cmp = icmp eq ptr %a, null
  br i1 %cmp, label %return, label %if.end

if.end:                                           ; preds = %entry
  %cmp1 = icmp eq ptr %b, null
  br i1 %cmp1, label %return, label %if.end3

if.end3:                                          ; preds = %if.end
  %call = tail call noalias noundef nonnull dereferenceable(64) ptr @_Znwm(i64 noundef 64) #17
  invoke void @_ZN3re29Prefilter4InfoC1Ev(ptr noundef nonnull align 8 dereferenceable(64) %call)
          to label %invoke.cont unwind label %lpad

invoke.cont:                                      ; preds = %if.end3
  %is_exact_.i = getelementptr inbounds i8, ptr %a, i64 48
  %0 = load i8, ptr %is_exact_.i, align 8
  %1 = and i8 %0, 1
  %tobool.not.i = icmp eq i8 %1, 0
  br i1 %tobool.not.i, label %entry.if.end_crit_edge.i, label %if.then.i

entry.if.end_crit_edge.i:                         ; preds = %invoke.cont
  %match_3.phi.trans.insert.i = getelementptr inbounds i8, ptr %a, i64 56
  %.pre.i = load ptr, ptr %match_3.phi.trans.insert.i, align 8
  br label %_ZN3re29Prefilter4Info9TakeMatchEv.exit

if.then.i:                                        ; preds = %invoke.cont
  %call.i = tail call noundef ptr @_ZN3re29Prefilter9OrStringsEPSt3setINSt7__cxx1112basic_stringIcSt11char_traitsIcESaIcEEENS0_13LengthThenLexESaIS7_EE(ptr noundef nonnull %a)
  store i8 0, ptr %is_exact_.i, align 8
  br label %_ZN3re29Prefilter4Info9TakeMatchEv.exit

_ZN3re29Prefilter4Info9TakeMatchEv.exit:          ; preds = %entry.if.end_crit_edge.i, %if.then.i
  %2 = phi ptr [ %.pre.i, %entry.if.end_crit_edge.i ], [ %call.i, %if.then.i ]
  %match_3.i = getelementptr inbounds i8, ptr %a, i64 56
  store ptr null, ptr %match_3.i, align 8
  %is_exact_.i9 = getelementptr inbounds i8, ptr %b, i64 48
  %3 = load i8, ptr %is_exact_.i9, align 8
  %4 = and i8 %3, 1
  %tobool.not.i10 = icmp eq i8 %4, 0
  br i1 %tobool.not.i10, label %entry.if.end_crit_edge.i14, label %if.then.i11

entry.if.end_crit_edge.i14:                       ; preds = %_ZN3re29Prefilter4Info9TakeMatchEv.exit
  %match_3.phi.trans.insert.i15 = getelementptr inbounds i8, ptr %b, i64 56
  %.pre.i16 = load ptr, ptr %match_3.phi.trans.insert.i15, align 8
  br label %_ZN3re29Prefilter4Info9TakeMatchEv.exit17

if.then.i11:                                      ; preds = %_ZN3re29Prefilter4Info9TakeMatchEv.exit
  %call.i12 = tail call noundef ptr @_ZN3re29Prefilter9OrStringsEPSt3setINSt7__cxx1112basic_stringIcSt11char_traitsIcESaIcEEENS0_13LengthThenLexESaIS7_EE(ptr noundef nonnull %b)
  store i8 0, ptr %is_exact_.i9, align 8
  br label %_ZN3re29Prefilter4Info9TakeMatchEv.exit17

_ZN3re29Prefilter4Info9TakeMatchEv.exit17:        ; preds = %entry.if.end_crit_edge.i14, %if.then.i11
  %5 = phi ptr [ %.pre.i16, %entry.if.end_crit_edge.i14 ], [ %call.i12, %if.then.i11 ]
  %match_3.i13 = getelementptr inbounds i8, ptr %b, i64 56
  store ptr null, ptr %match_3.i13, align 8
  %call.i18 = tail call noundef ptr @_ZN3re29Prefilter5AndOrENS0_2OpEPS0_S2_(i32 noundef 3, ptr noundef %2, ptr noundef %5)
  %match_ = getelementptr inbounds i8, ptr %call, i64 56
  store ptr %call.i18, ptr %match_, align 8
  %is_exact_ = getelementptr inbounds i8, ptr %call, i64 48
  store i8 0, ptr %is_exact_, align 8
  tail call void @_ZN3re29Prefilter4InfoD1Ev(ptr noundef nonnull align 8 dereferenceable(64) %a) #16
  tail call void @_ZdlPv(ptr noundef nonnull %a) #18
  tail call void @_ZN3re29Prefilter4InfoD1Ev(ptr noundef nonnull align 8 dereferenceable(64) %b) #16
  tail call void @_ZdlPv(ptr noundef nonnull %b) #18
  br label %return

lpad:                                             ; preds = %if.end3
  %6 = landingpad { ptr, i32 }
          cleanup
  tail call void @_ZdlPv(ptr noundef nonnull %call) #18
  resume { ptr, i32 } %6

return:                                           ; preds = %if.end, %entry, %_ZN3re29Prefilter4Info9TakeMatchEv.exit17
  %retval.0 = phi ptr [ %call, %_ZN3re29Prefilter4Info9TakeMatchEv.exit17 ], [ %b, %entry ], [ %a, %if.end ]
  ret ptr %retval.0
}